; ModuleID = 'bench/linux/original/serial_ctrl.ll'
source_filename = "bench/linux/original/serial_ctrl.ll"
target datalayout = "e-m:e-p270:32:32-p271:32:32-p272:64:64-i64:64-i128:128-f80:128-n8:16:32:64-S128"
target triple = "x86_64-unknown-linux-gnu"

%struct.device_driver = type { ptr, ptr, ptr, ptr, i8, i32, ptr, ptr, ptr, ptr, ptr, ptr, ptr, ptr, ptr, ptr, ptr, ptr, ptr }

@serial_ctrl_driver = internal global %struct.device_driver { ptr @.str, ptr null, ptr null, ptr null, i8 1, i32 0, ptr null, ptr null, ptr @serial_ctrl_probe, ptr null, ptr @serial_ctrl_remove, ptr null, ptr null, ptr null, ptr null, ptr null, ptr null, ptr null, ptr null }, align 8
@__UNIQUE_ID_author354 = internal constant [52 x i8] c"serial_base.author=Tony Lindgren <tony@atomide.com>\00", section ".modinfo", align 1
@__UNIQUE_ID_description355 = internal constant [54 x i8] c"serial_base.description=Serial core controller driver\00", section ".modinfo", align 1
@__UNIQUE_ID_file356 = internal constant [48 x i8] c"serial_base.file=drivers/tty/serial/serial_base\00", section ".modinfo", align 1
@__UNIQUE_ID_license357 = internal constant [24 x i8] c"serial_base.license=GPL\00", section ".modinfo", align 1
@.str = private unnamed_addr constant [5 x i8] c"ctrl\00", align 1
@llvm.compiler.used = appending global [4 x ptr] [ptr @__UNIQUE_ID_author354, ptr @__UNIQUE_ID_description355, ptr @__UNIQUE_ID_file356, ptr @__UNIQUE_ID_license357], section "llvm.metadata"

; Function Attrs: fn_ret_thunk_extern nounwind null_pointer_is_valid
define dso_local i32 @serial_ctrl_register_port(ptr noundef %0, ptr noundef %1) local_unnamed_addr #0 align 16 {
  %3 = tail call i32 @serial_core_register_port(ptr noundef %0, ptr noundef %1) #2
  ret i32 %3
}

; Function Attrs: null_pointer_is_valid
declare dso_local i32 @serial_core_register_port(ptr noundef, ptr noundef) local_unnamed_addr #1

; Function Attrs: fn_ret_thunk_extern nounwind null_pointer_is_valid
define dso_local void @serial_ctrl_unregister_port(ptr noundef %0, ptr noundef %1) local_unnamed_addr #0 align 16 {
  tail call void @serial_core_unregister_port(ptr noundef %0, ptr noundef %1) #2
  ret void
}

; Function Attrs: null_pointer_is_valid
declare dso_local void @serial_core_unregister_port(ptr noundef, ptr noundef) local_unnamed_addr #1

; Function Attrs: fn_ret_thunk_extern nounwind null_pointer_is_valid
define dso_local i32 @serial_base_ctrl_init() local_unnamed_addr #0 align 16 {
  %1 = tail call i32 @serial_base_driver_register(ptr noundef nonnull @serial_ctrl_driver) #2
  ret i32 %1
}

; Function Attrs: null_pointer_is_valid
declare dso_local i32 @serial_base_driver_register(ptr noundef) local_unnamed_addr #1

; Function Attrs: fn_ret_thunk_extern nounwind null_pointer_is_valid
define dso_local void @serial_base_ctrl_exit() local_unnamed_addr #0 align 16 {
  tail call void @serial_base_driver_unregister(ptr noundef nonnull @serial_ctrl_driver) #2
  ret void
}

; Function Attrs: null_pointer_is_valid
declare dso_local void @serial_base_driver_unregister(ptr noundef) local_unnamed_addr #1

; Function Attrs: fn_ret_thunk_extern nounwind null_pointer_is_valid
define internal noundef i32 @serial_ctrl_probe(ptr noundef %0) #0 align 16 {
  tail call void @pm_runtime_enable(ptr noundef %0) #2
  ret i32 0
}

; Function Attrs: fn_ret_thunk_extern nounwind null_pointer_is_valid
define internal noundef i32 @serial_ctrl_remove(ptr noundef %0) #0 align 16 {
  tail call void @__pm_runtime_disable(ptr noundef %0, i1 noundef zeroext true) #2
  ret i32 0
}

; Function Attrs: null_pointer_is_valid
declare dso_local void @pm_runtime_enable(ptr noundef) local_unnamed_addr #1

; Function Attrs: null_pointer_is_valid
declare dso_local void @__pm_runtime_disable(ptr noundef, i1 noundef zeroext) local_unnamed_addr #1


!llvm.module.flags = !{!0, !1, !2, !3, !4}

!0 = !{i32 1, !"wchar_size", i32 2}
!1 = !{i32 8, !"cf-protection-branch", i32 1}
!2 = !{i32 4, !"function_return_thunk_extern", i32 1}
!3 = !{i32 4, !"indirect_branch_cs_prefix", i32 1}
!4 = !{i32 4, !"SkipRaxSetup", i32 1}
